; Function Attrs: mustprogress nounwind uwtable
define hidden void @_ZNK7JfrDCmd6invokeER16JfrJavaArgumentsP10JavaThread(ptr noundef nonnull align 8 dereferenceable(37) %0, ptr noundef nonnull align 8 dereferenceable(300) %1, ptr noundef %2) local_unnamed_addr #0 align 2 {
  %4 = alloca %class.JavaValue, align 8
  %5 = alloca %class.JfrJavaArguments, align 8
  %6 = alloca %class.HandleMark, align 8
  store i8 12, ptr %4, align 8
  call void @_ZN16JfrJavaArgumentsC1EP9JavaValue(ptr noundef nonnull align 8 dereferenceable(300) %5, ptr noundef nonnull %4) #13
  %7 = load ptr, ptr %0, align 8
  %8 = getelementptr inbounds i8, ptr %7, i64 56
  %9 = load ptr, ptr %8, align 8
  %10 = call noundef ptr %9(ptr noundef nonnull align 8 dereferenceable(37) %0) #13
  call void @_ZN16JfrJavaArguments9set_klassEPKcP10JavaThread(ptr noundef nonnull align 8 dereferenceable(300) %5, ptr noundef %10, ptr noundef %2) #13
  %11 = getelementptr inbounds i8, ptr %2, i64 8
  %12 = load ptr, ptr %11, align 8
  %.not = icmp eq ptr %12, null
  br i1 %.not, label %13, label %34

13:                                               ; preds = %3
  call void @_ZN10HandleMark10initializeEP6Thread(ptr noundef nonnull align 8 dereferenceable(56) %6, ptr noundef nonnull %2) #13
  call void @_ZN10JavaThread21push_jni_handle_blockEv(ptr noundef nonnull align 8 dereferenceable(1800) %2) #13
  call void @_ZN16JfrJavaArguments8set_nameEPKc(ptr noundef nonnull align 8 dereferenceable(300) %5, ptr noundef nonnull @.str.102) #13
  call void @_ZN16JfrJavaArguments13set_signatureEPKc(ptr noundef nonnull align 8 dereferenceable(300) %5, ptr noundef nonnull @.str.103) #13
  call void @_ZN14JfrJavaSupport10new_objectEP16JfrJavaArgumentsP10JavaThread(ptr noundef nonnull %5, ptr noundef nonnull %2) #13
  %14 = load ptr, ptr %11, align 8
  %.not.i = icmp eq ptr %14, null
  br i1 %.not.i, label %_ZL23construct_dcmd_instanceP16JfrJavaArgumentsP10JavaThread.exit, label %_ZL23construct_dcmd_instanceP16JfrJavaArgumentsP10JavaThread.exit.thread

_ZL23construct_dcmd_instanceP16JfrJavaArgumentsP10JavaThread.exit: ; preds = %13
  %15 = call noundef ptr @_ZNK16JfrJavaArguments6resultEv(ptr noundef nonnull align 8 dereferenceable(300) %5) #13
  %16 = getelementptr inbounds i8, ptr %15, i64 8
  %17 = load ptr, ptr %16, align 8
  %.pr = load ptr, ptr %11, align 8
  %.not14 = icmp eq ptr %.pr, null
  br i1 %.not14, label %18, label %_ZL23construct_dcmd_instanceP16JfrJavaArgumentsP10JavaThread.exit.thread

18:                                               ; preds = %_ZL23construct_dcmd_instanceP16JfrJavaArgumentsP10JavaThread.exit
  %19 = icmp eq ptr %17, null
  br i1 %19, label %_ZN6HandleC2EP6ThreadP7oopDesc.exit, label %20

20:                                               ; preds = %18
  %21 = getelementptr inbounds i8, ptr %2, i64 808
  %22 = load ptr, ptr %21, align 8
  %23 = getelementptr inbounds i8, ptr %22, i64 40
  %24 = load ptr, ptr %23, align 8
  %25 = getelementptr inbounds i8, ptr %22, i64 32
  %26 = load ptr, ptr %25, align 8
  %27 = ptrtoint ptr %24 to i64
  %28 = ptrtoint ptr %26 to i64
  %29 = sub i64 %27, %28
  %.not.i.i.i.i = icmp ult i64 %29, 8
  br i1 %.not.i.i.i.i, label %32, label %30

30:                                               ; preds = %20
  %31 = getelementptr inbounds i8, ptr %26, i64 8
  store ptr %31, ptr %25, align 8
  br label %_ZN10HandleArea15allocate_handleEP7oopDesc.exit.i

32:                                               ; preds = %20
  %33 = call noundef ptr @_ZN5Arena4growEmN17AllocFailStrategy13AllocFailEnumE(ptr noundef nonnull align 8 dereferenceable(48) %22, i64 noundef 8, i32 noundef 0) #13
  br label %_ZN10HandleArea15allocate_handleEP7oopDesc.exit.i

_ZN10HandleArea15allocate_handleEP7oopDesc.exit.i: ; preds = %32, %30
  %.0.i.i.i.i = phi ptr [ %26, %30 ], [ %33, %32 ]
  store ptr %17, ptr %.0.i.i.i.i, align 8
  br label %_ZN6HandleC2EP6ThreadP7oopDesc.exit

_ZN6HandleC2EP6ThreadP7oopDesc.exit:              ; preds = %18, %_ZN10HandleArea15allocate_handleEP7oopDesc.exit.i
  %storemerge.i = phi ptr [ %.0.i.i.i.i, %_ZN10HandleArea15allocate_handleEP7oopDesc.exit.i ], [ null, %18 ]
  call void @_ZN16JfrJavaArguments12set_receiverE6Handle(ptr noundef nonnull align 8 dereferenceable(300) %1, ptr %storemerge.i) #13
  call void @_ZN14JfrJavaSupport12call_virtualEP16JfrJavaArgumentsP10JavaThread(ptr noundef nonnull %1, ptr noundef nonnull %2) #13
  br label %_ZL23construct_dcmd_instanceP16JfrJavaArgumentsP10JavaThread.exit.thread

_ZL23construct_dcmd_instanceP16JfrJavaArgumentsP10JavaThread.exit.thread: ; preds = %13, %_ZL23construct_dcmd_instanceP16JfrJavaArgumentsP10JavaThread.exit, %_ZN6HandleC2EP6ThreadP7oopDesc.exit
  call void @_ZN10JavaThread20pop_jni_handle_blockEv(ptr noundef nonnull align 8 dereferenceable(1800) %2) #13
  call void @_ZN10HandleMarkD1Ev(ptr noundef nonnull align 8 dereferenceable(56) %6) #13
  br label %34

34:                                               ; preds = %3, %_ZL23construct_dcmd_instanceP16JfrJavaArgumentsP10JavaThread.exit.thread
  ret void
}